target datalayout = "e-m:e-p270:32:32-p271:32:32-p272:64:64-i64:64-i128:128-f80:128-n8:16:32:64-S128"
target triple = "x86_64-pc-linux-gnu"

%"struct.vcpkg::StringView" = type { ptr, i64 }

@.str.6 = private unnamed_addr constant [12 x i8] c"all_modules\00", align 1
@.str.7 = private unnamed_addr constant [4 x i8] c"prn\00", align 1
@.str.8 = private unnamed_addr constant [4 x i8] c"aux\00", align 1
@.str.9 = private unnamed_addr constant [4 x i8] c"nul\00", align 1
@.str.10 = private unnamed_addr constant [4 x i8] c"con\00", align 1
@.str.11 = private unnamed_addr constant [4 x i8] c"lpt\00", align 1
@.str.12 = private unnamed_addr constant [4 x i8] c"com\00", align 1
@_ZN5vcpkg15FeatureNameCoreE = linkonce_odr dso_local constant { ptr, i64 } { ptr @.str.24, i64 4 }, comdat, align 8
@_ZN5vcpkg18FeatureNameDefaultE = linkonce_odr dso_local constant { ptr, i64 } { ptr @.str.26, i64 7 }, comdat, align 8

; Function Attrs: mustprogress nounwind uwtable
define linkonce_odr dso_local noundef zeroext i1 @_ZN5vcpkg10ParserBase14is_ascii_digitEDi(i32 noundef zeroext %0) #0 comdat align 2 {
  %2 = alloca i32, align 4
  store i32 %0, ptr %2, align 4
  %3 = load i32, ptr %2, align 4
  %4 = icmp uge i32 %3, 48
  br i1 %4, label %5, label %8

5:                                                ; preds = %1
  %6 = load i32, ptr %2, align 4
  %7 = icmp ule i32 %6, 57
  br label %8

8:                                                ; preds = %5, %1
  %9 = phi i1 [ false, %1 ], [ %7, %5 ]
  ret i1 %9
}

; Function Attrs: mustprogress nounwind uwtable
define linkonce_odr dso_local noundef zeroext i1 @_ZN5vcpkg10ParserBase14is_lower_alphaEDi(i32 noundef zeroext %0) #0 comdat align 2 {
  %2 = alloca i32, align 4
  store i32 %0, ptr %2, align 4
  %3 = load i32, ptr %2, align 4
  %4 = icmp uge i32 %3, 97
  br i1 %4, label %5, label %8

5:                                                ; preds = %1
  %6 = load i32, ptr %2, align 4
  %7 = icmp ule i32 %6, 122
  br label %8

8:                                                ; preds = %5, %1
  %9 = phi i1 [ false, %1 ], [ %7, %5 ]
  ret i1 %9
}

; Function Attrs: mustprogress nounwind uwtable
define linkonce_odr dso_local noundef signext i8 @_ZNK5vcpkg10StringViewixEm(ptr noundef nonnull align 8 dereferenceable(16) %0, i64 noundef %1) #0 comdat align 2 {
  %3 = alloca ptr, align 8
  %4 = alloca i64, align 8
  store ptr %0, ptr %3, align 8
  store i64 %1, ptr %4, align 8
  %5 = load ptr, ptr %3, align 8
  %6 = getelementptr inbounds %"struct.vcpkg::StringView", ptr %5, i32 0, i32 0
  %7 = load ptr, ptr %6, align 8
  %8 = load i64, ptr %4, align 8
  %9 = getelementptr inbounds i8, ptr %7, i64 %8
  %10 = load i8, ptr %9, align 1
  ret i8 %10
}

; Function Attrs: mustprogress nounwind uwtable
define linkonce_odr dso_local noundef i64 @_ZNK5vcpkg10StringView4sizeEv(ptr noundef nonnull align 8 dereferenceable(16) %0) #0 comdat align 2 {
  %2 = alloca ptr, align 8
  store ptr %0, ptr %2, align 8
  %3 = load ptr, ptr %2, align 8
  %4 = getelementptr inbounds %"struct.vcpkg::StringView", ptr %3, i32 0, i32 1
  %5 = load i64, ptr %4, align 8
  ret i64 %5
}

; Function Attrs: mustprogress uwtable
define linkonce_odr dso_local noundef zeroext i1 @_ZN5vcpkg10ParserBase14is_lower_digitEc(i8 noundef signext %0) #4 comdat align 2 {
  %2 = alloca i8, align 1
  store i8 %0, ptr %2, align 1
  %3 = load i8, ptr %2, align 1
  %4 = sext i8 %3 to i32
  %5 = call noundef zeroext i1 @_ZN5vcpkg10ParserBase14is_lower_alphaEDi(i32 noundef zeroext %4)
  br i1 %5, label %10, label %6

6:                                                ; preds = %1
  %7 = load i8, ptr %2, align 1
  %8 = sext i8 %7 to i32
  %9 = call noundef zeroext i1 @_ZN5vcpkg10ParserBase14is_ascii_digitEDi(i32 noundef zeroext %8)
  br label %10

10:                                               ; preds = %6, %1
  %11 = phi i1 [ true, %1 ], [ %9, %6 ]
  ret i1 %11
}

; Function Attrs: mustprogress nounwind uwtable
define linkonce_odr dso_local noundef ptr @_ZNK5vcpkg10StringView3endEv(ptr noundef nonnull align 8 dereferenceable(16) %0) #0 comdat align 2 {
  %2 = alloca ptr, align 8
  store ptr %0, ptr %2, align 8
  %3 = load ptr, ptr %2, align 8
  %4 = getelementptr inbounds %"struct.vcpkg::StringView", ptr %3, i32 0, i32 0
  %5 = load ptr, ptr %4, align 8
  %6 = getelementptr inbounds %"struct.vcpkg::StringView", ptr %3, i32 0, i32 1
  %7 = load i64, ptr %6, align 8
  %8 = getelementptr inbounds i8, ptr %5, i64 %7
  ret ptr %8
}

; Function Attrs: mustprogress nounwind uwtable
define linkonce_odr dso_local noundef ptr @_ZNK5vcpkg10StringView5beginEv(ptr noundef nonnull align 8 dereferenceable(16) %0) #0 comdat align 2 {
  %2 = alloca ptr, align 8
  store ptr %0, ptr %2, align 8
  %3 = load ptr, ptr %2, align 8
  %4 = getelementptr inbounds %"struct.vcpkg::StringView", ptr %3, i32 0, i32 0
  %5 = load ptr, ptr %4, align 8
  ret ptr %5
}

; Function Attrs: mustprogress nounwind uwtable
define linkonce_odr dso_local void @_ZN5vcpkg10StringViewC2EPKc(ptr noundef nonnull align 8 dereferenceable(16) %0, ptr noundef %1) unnamed_addr #0 comdat align 2 {
  %3 = alloca ptr, align 8
  %4 = alloca ptr, align 8
  store ptr %0, ptr %3, align 8
  store ptr %1, ptr %4, align 8
  %5 = load ptr, ptr %3, align 8
  %6 = getelementptr inbounds %"struct.vcpkg::StringView", ptr %5, i32 0, i32 0
  %7 = load ptr, ptr %4, align 8
  store ptr %7, ptr %6, align 8
  %8 = getelementptr inbounds %"struct.vcpkg::StringView", ptr %5, i32 0, i32 1
  %9 = load ptr, ptr %4, align 8
  %10 = call i64 @strlen(ptr noundef %9) #23
  store i64 %10, ptr %8, align 8
  ret void
}

; Function Attrs: mustprogress uwtable
define dso_local noundef zeroext i1 @_ZN5vcpkg4Json22IdentifierDeserializer8is_identENS_10StringViewE(ptr %0, i64 %1) #4 align 2 {
  %3 = alloca i1, align 1
  %4 = alloca %"struct.vcpkg::StringView", align 8
  %5 = alloca %"struct.vcpkg::StringView", align 8
  %6 = alloca %"struct.vcpkg::StringView", align 8
  %7 = alloca ptr, align 8
  %8 = alloca ptr, align 8
  %9 = alloca %"struct.vcpkg::StringView", align 8
  %10 = alloca %"struct.vcpkg::StringView", align 8
  %11 = alloca %"struct.vcpkg::StringView", align 8
  %12 = alloca %"struct.vcpkg::StringView", align 8
  %13 = alloca %"struct.vcpkg::StringView", align 8
  %14 = alloca %"struct.vcpkg::StringView", align 8
  %15 = alloca %"struct.vcpkg::StringView", align 8
  %16 = alloca %"struct.vcpkg::StringView", align 8
  %17 = alloca %"struct.vcpkg::StringView", align 8
  %18 = alloca %"struct.vcpkg::StringView", align 8
  %19 = alloca %"struct.vcpkg::StringView", align 8
  %20 = alloca %"struct.vcpkg::StringView", align 8
  %21 = alloca %"struct.vcpkg::StringView", align 8
  %22 = alloca %"struct.vcpkg::StringView", align 8
  %23 = alloca %"struct.vcpkg::StringView", align 8
  %24 = alloca %"struct.vcpkg::StringView", align 8
  %25 = getelementptr inbounds { ptr, i64 }, ptr %4, i32 0, i32 0
  store ptr %0, ptr %25, align 8
  %26 = getelementptr inbounds { ptr, i64 }, ptr %4, i32 0, i32 1
  store i64 %1, ptr %26, align 8
  call void @llvm.memcpy.p0.p0.i64(ptr align 8 %5, ptr align 8 %4, i64 16, i1 false)
  call void @_ZN5vcpkg10StringViewC2EPKc(ptr noundef nonnull align 8 dereferenceable(16) %6, ptr noundef @.str.6) #9
  %27 = getelementptr inbounds { ptr, i64 }, ptr %5, i32 0, i32 0
  %28 = load ptr, ptr %27, align 8
  %29 = getelementptr inbounds { ptr, i64 }, ptr %5, i32 0, i32 1
  %30 = load i64, ptr %29, align 8
  %31 = getelementptr inbounds { ptr, i64 }, ptr %6, i32 0, i32 0
  %32 = load ptr, ptr %31, align 8
  %33 = getelementptr inbounds { ptr, i64 }, ptr %6, i32 0, i32 1
  %34 = load i64, ptr %33, align 8
  %35 = call noundef zeroext i1 @_ZN5vcpkgeqENS_10StringViewES0_(ptr %28, i64 %30, ptr %32, i64 %34) #9
  br i1 %35, label %36, label %37

36:                                               ; preds = %2
  store i1 true, ptr %3, align 1
  br label %179

37:                                               ; preds = %2
  %38 = call noundef ptr @_ZNK5vcpkg10StringView5beginEv(ptr noundef nonnull align 8 dereferenceable(16) %4) #9
  store ptr %38, ptr %7, align 8
  %39 = call noundef ptr @_ZNK5vcpkg10StringView3endEv(ptr noundef nonnull align 8 dereferenceable(16) %4) #9
  store ptr %39, ptr %8, align 8
  br label %40

40:                                               ; preds = %76, %37
  %41 = load ptr, ptr %7, align 8
  %42 = load ptr, ptr %8, align 8
  %43 = icmp eq ptr %41, %42
  br i1 %43, label %48, label %44

44:                                               ; preds = %40
  %45 = load ptr, ptr %7, align 8
  %46 = load i8, ptr %45, align 1
  %47 = call noundef zeroext i1 @_ZN5vcpkg10ParserBase14is_lower_digitEc(i8 noundef signext %46)
  br i1 %47, label %49, label %48

48:                                               ; preds = %44, %40
  store i1 false, ptr %3, align 1
  br label %179

49:                                               ; preds = %44
  %50 = load ptr, ptr %7, align 8
  %51 = getelementptr inbounds i8, ptr %50, i32 1
  store ptr %51, ptr %7, align 8
  br label %52

52:                                               ; preds = %62, %49
  %53 = load ptr, ptr %7, align 8
  %54 = load ptr, ptr %8, align 8
  %55 = icmp ne ptr %53, %54
  br i1 %55, label %56, label %60

56:                                               ; preds = %52
  %57 = load ptr, ptr %7, align 8
  %58 = load i8, ptr %57, align 1
  %59 = call noundef zeroext i1 @_ZN5vcpkg10ParserBase14is_lower_digitEc(i8 noundef signext %58)
  br label %60

60:                                               ; preds = %56, %52
  %61 = phi i1 [ false, %52 ], [ %59, %56 ]
  br i1 %61, label %62, label %65

62:                                               ; preds = %60
  %63 = load ptr, ptr %7, align 8
  %64 = getelementptr inbounds i8, ptr %63, i32 1
  store ptr %64, ptr %7, align 8
  br label %52, !llvm.loop !11

65:                                               ; preds = %60
  %66 = load ptr, ptr %7, align 8
  %67 = load ptr, ptr %8, align 8
  %68 = icmp eq ptr %66, %67
  br i1 %68, label %69, label %70

69:                                               ; preds = %65
  br label %79

70:                                               ; preds = %65
  %71 = load ptr, ptr %7, align 8
  %72 = load i8, ptr %71, align 1
  %73 = sext i8 %72 to i32
  %74 = icmp ne i32 %73, 45
  br i1 %74, label %75, label %76

75:                                               ; preds = %70
  store i1 false, ptr %3, align 1
  br label %179

76:                                               ; preds = %70
  %77 = load ptr, ptr %7, align 8
  %78 = getelementptr inbounds i8, ptr %77, i32 1
  store ptr %78, ptr %7, align 8
  br label %40, !llvm.loop !13

79:                                               ; preds = %69
  %80 = call noundef i64 @_ZNK5vcpkg10StringView4sizeEv(ptr noundef nonnull align 8 dereferenceable(16) %4) #9
  %81 = icmp ult i64 %80, 5
  br i1 %81, label %82, label %166

82:                                               ; preds = %79
  call void @llvm.memcpy.p0.p0.i64(ptr align 8 %9, ptr align 8 %4, i64 16, i1 false)
  call void @_ZN5vcpkg10StringViewC2EPKc(ptr noundef nonnull align 8 dereferenceable(16) %10, ptr noundef @.str.7) #9
  %83 = getelementptr inbounds { ptr, i64 }, ptr %9, i32 0, i32 0
  %84 = load ptr, ptr %83, align 8
  %85 = getelementptr inbounds { ptr, i64 }, ptr %9, i32 0, i32 1
  %86 = load i64, ptr %85, align 8
  %87 = getelementptr inbounds { ptr, i64 }, ptr %10, i32 0, i32 0
  %88 = load ptr, ptr %87, align 8
  %89 = getelementptr inbounds { ptr, i64 }, ptr %10, i32 0, i32 1
  %90 = load i64, ptr %89, align 8
  %91 = call noundef zeroext i1 @_ZN5vcpkgeqENS_10StringViewES0_(ptr %84, i64 %86, ptr %88, i64 %90) #9
  br i1 %91, label %132, label %92

92:                                               ; preds = %82
  call void @llvm.memcpy.p0.p0.i64(ptr align 8 %11, ptr align 8 %4, i64 16, i1 false)
  call void @_ZN5vcpkg10StringViewC2EPKc(ptr noundef nonnull align 8 dereferenceable(16) %12, ptr noundef @.str.8) #9
  %93 = getelementptr inbounds { ptr, i64 }, ptr %11, i32 0, i32 0
  %94 = load ptr, ptr %93, align 8
  %95 = getelementptr inbounds { ptr, i64 }, ptr %11, i32 0, i32 1
  %96 = load i64, ptr %95, align 8
  %97 = getelementptr inbounds { ptr, i64 }, ptr %12, i32 0, i32 0
  %98 = load ptr, ptr %97, align 8
  %99 = getelementptr inbounds { ptr, i64 }, ptr %12, i32 0, i32 1
  %100 = load i64, ptr %99, align 8
  %101 = call noundef zeroext i1 @_ZN5vcpkgeqENS_10StringViewES0_(ptr %94, i64 %96, ptr %98, i64 %100) #9
  br i1 %101, label %132, label %102

102:                                              ; preds = %92
  call void @llvm.memcpy.p0.p0.i64(ptr align 8 %13, ptr align 8 %4, i64 16, i1 false)
  call void @_ZN5vcpkg10StringViewC2EPKc(ptr noundef nonnull align 8 dereferenceable(16) %14, ptr noundef @.str.9) #9
  %103 = getelementptr inbounds { ptr, i64 }, ptr %13, i32 0, i32 0
  %104 = load ptr, ptr %103, align 8
  %105 = getelementptr inbounds { ptr, i64 }, ptr %13, i32 0, i32 1
  %106 = load i64, ptr %105, align 8
  %107 = getelementptr inbounds { ptr, i64 }, ptr %14, i32 0, i32 0
  %108 = load ptr, ptr %107, align 8
  %109 = getelementptr inbounds { ptr, i64 }, ptr %14, i32 0, i32 1
  %110 = load i64, ptr %109, align 8
  %111 = call noundef zeroext i1 @_ZN5vcpkgeqENS_10StringViewES0_(ptr %104, i64 %106, ptr %108, i64 %110) #9
  br i1 %111, label %132, label %112

112:                                              ; preds = %102
  call void @llvm.memcpy.p0.p0.i64(ptr align 8 %15, ptr align 8 %4, i64 16, i1 false)
  call void @_ZN5vcpkg10StringViewC2EPKc(ptr noundef nonnull align 8 dereferenceable(16) %16, ptr noundef @.str.10) #9
  %113 = getelementptr inbounds { ptr, i64 }, ptr %15, i32 0, i32 0
  %114 = load ptr, ptr %113, align 8
  %115 = getelementptr inbounds { ptr, i64 }, ptr %15, i32 0, i32 1
  %116 = load i64, ptr %115, align 8
  %117 = getelementptr inbounds { ptr, i64 }, ptr %16, i32 0, i32 0
  %118 = load ptr, ptr %117, align 8
  %119 = getelementptr inbounds { ptr, i64 }, ptr %16, i32 0, i32 1
  %120 = load i64, ptr %119, align 8
  %121 = call noundef zeroext i1 @_ZN5vcpkgeqENS_10StringViewES0_(ptr %114, i64 %116, ptr %118, i64 %120) #9
  br i1 %121, label %132, label %122

122:                                              ; preds = %112
  call void @llvm.memcpy.p0.p0.i64(ptr align 8 %17, ptr align 8 %4, i64 16, i1 false)
  call void @llvm.memcpy.p0.p0.i64(ptr align 8 %18, ptr align 8 @_ZN5vcpkg15FeatureNameCoreE, i64 16, i1 false)
  %123 = getelementptr inbounds { ptr, i64 }, ptr %17, i32 0, i32 0
  %124 = load ptr, ptr %123, align 8
  %125 = getelementptr inbounds { ptr, i64 }, ptr %17, i32 0, i32 1
  %126 = load i64, ptr %125, align 8
  %127 = getelementptr inbounds { ptr, i64 }, ptr %18, i32 0, i32 0
  %128 = load ptr, ptr %127, align 8
  %129 = getelementptr inbounds { ptr, i64 }, ptr %18, i32 0, i32 1
  %130 = load i64, ptr %129, align 8
  %131 = call noundef zeroext i1 @_ZN5vcpkgeqENS_10StringViewES0_(ptr %124, i64 %126, ptr %128, i64 %130) #9
  br i1 %131, label %132, label %133

132:                                              ; preds = %122, %112, %102, %92, %82
  store i1 false, ptr %3, align 1
  br label %179

133:                                              ; preds = %122
  %134 = call noundef i64 @_ZNK5vcpkg10StringView4sizeEv(ptr noundef nonnull align 8 dereferenceable(16) %4) #9
  %135 = icmp eq i64 %134, 4
  br i1 %135, label %136, label %165

136:                                              ; preds = %133
  call void @llvm.memcpy.p0.p0.i64(ptr align 8 %19, ptr align 8 %4, i64 16, i1 false)
  call void @_ZN5vcpkg10StringViewC2EPKc(ptr noundef nonnull align 8 dereferenceable(16) %20, ptr noundef @.str.11) #9
  %137 = getelementptr inbounds { ptr, i64 }, ptr %19, i32 0, i32 0
  %138 = load ptr, ptr %137, align 8
  %139 = getelementptr inbounds { ptr, i64 }, ptr %19, i32 0, i32 1
  %140 = load i64, ptr %139, align 8
  %141 = getelementptr inbounds { ptr, i64 }, ptr %20, i32 0, i32 0
  %142 = load ptr, ptr %141, align 8
  %143 = getelementptr inbounds { ptr, i64 }, ptr %20, i32 0, i32 1
  %144 = load i64, ptr %143, align 8
  %145 = call noundef zeroext i1 @_ZN5vcpkg7Strings11starts_withENS_10StringViewES1_(ptr %138, i64 %140, ptr %142, i64 %144)
  br i1 %145, label %156, label %146

146:                                              ; preds = %136
  call void @llvm.memcpy.p0.p0.i64(ptr align 8 %21, ptr align 8 %4, i64 16, i1 false)
  call void @_ZN5vcpkg10StringViewC2EPKc(ptr noundef nonnull align 8 dereferenceable(16) %22, ptr noundef @.str.12) #9
  %147 = getelementptr inbounds { ptr, i64 }, ptr %21, i32 0, i32 0
  %148 = load ptr, ptr %147, align 8
  %149 = getelementptr inbounds { ptr, i64 }, ptr %21, i32 0, i32 1
  %150 = load i64, ptr %149, align 8
  %151 = getelementptr inbounds { ptr, i64 }, ptr %22, i32 0, i32 0
  %152 = load ptr, ptr %151, align 8
  %153 = getelementptr inbounds { ptr, i64 }, ptr %22, i32 0, i32 1
  %154 = load i64, ptr %153, align 8
  %155 = call noundef zeroext i1 @_ZN5vcpkg7Strings11starts_withENS_10StringViewES1_(ptr %148, i64 %150, ptr %152, i64 %154)
  br i1 %155, label %156, label %165

156:                                              ; preds = %146, %136
  %157 = call noundef signext i8 @_ZNK5vcpkg10StringViewixEm(ptr noundef nonnull align 8 dereferenceable(16) %4, i64 noundef 3) #9
  %158 = sext i8 %157 to i32
  %159 = icmp sge i32 %158, 49
  br i1 %159, label %160, label %165

160:                                              ; preds = %156
  %161 = call noundef signext i8 @_ZNK5vcpkg10StringViewixEm(ptr noundef nonnull align 8 dereferenceable(16) %4, i64 noundef 3) #9
  %162 = sext i8 %161 to i32
  %163 = icmp sle i32 %162, 57
  br i1 %163, label %164, label %165

164:                                              ; preds = %160
  store i1 false, ptr %3, align 1
  br label %179

165:                                              ; preds = %160, %156, %146, %133
  br label %178

166:                                              ; preds = %79
  call void @llvm.memcpy.p0.p0.i64(ptr align 8 %23, ptr align 8 %4, i64 16, i1 false)
  call void @llvm.memcpy.p0.p0.i64(ptr align 8 %24, ptr align 8 @_ZN5vcpkg18FeatureNameDefaultE, i64 16, i1 false)
  %167 = getelementptr inbounds { ptr, i64 }, ptr %23, i32 0, i32 0
  %168 = load ptr, ptr %167, align 8
  %169 = getelementptr inbounds { ptr, i64 }, ptr %23, i32 0, i32 1
  %170 = load i64, ptr %169, align 8
  %171 = getelementptr inbounds { ptr, i64 }, ptr %24, i32 0, i32 0
  %172 = load ptr, ptr %171, align 8
  %173 = getelementptr inbounds { ptr, i64 }, ptr %24, i32 0, i32 1
  %174 = load i64, ptr %173, align 8
  %175 = call noundef zeroext i1 @_ZN5vcpkgeqENS_10StringViewES0_(ptr %168, i64 %170, ptr %172, i64 %174) #9
  br i1 %175, label %176, label %177

176:                                              ; preds = %166
  store i1 false, ptr %3, align 1
  br label %179

177:                                              ; preds = %166
  br label %178

178:                                              ; preds = %177, %165
  store i1 true, ptr %3, align 1
  br label %179

179:                                              ; preds = %178, %176, %164, %132, %75, %48, %36
  %180 = load i1, ptr %3, align 1
  ret i1 %180
}