; Function Attrs: mustprogress uwtable
define dso_local noundef zeroext i1 @_ZN5vcpkg4Json22IdentifierDeserializer8is_identENS_10StringViewE(ptr %0, i64 %1) local_unnamed_addr #8 align 2 {
  %3 = tail call noundef zeroext i1 @_ZN5vcpkgeqENS_10StringViewES0_(ptr %0, i64 %1, ptr nonnull @.str.6, i64 11) #26
  br i1 %3, label %.loopexit, label %4

4:                                                ; preds = %2
  %5 = getelementptr inbounds i8, ptr %0, i64 %1
  %6 = icmp eq i64 %1, 0
  br i1 %6, label %.loopexit, label %.lr.ph

.lr.ph:                                           ; preds = %4, %.critedge
  %.03364 = phi ptr [ %22, %.critedge ], [ %0, %4 ]
  %7 = load i8, ptr %.03364, align 1
  %8 = sext i8 %7 to i32
  %9 = add nsw i32 %8, -97
  %10 = icmp ult i32 %9, 26
  %11 = add nsw i32 %8, -48
  %12 = icmp ult i32 %11, 10
  %13 = select i1 %10, i1 true, i1 %12
  br i1 %13, label %.preheader, label %.loopexit

.preheader:                                       ; preds = %.lr.ph, %14
  %.033.pn = phi ptr [ %.1, %14 ], [ %.03364, %.lr.ph ]
  %.1 = getelementptr inbounds i8, ptr %.033.pn, i64 1
  %.not = icmp eq ptr %.1, %5
  br i1 %.not, label %24, label %14

14:                                               ; preds = %.preheader
  %15 = load i8, ptr %.1, align 1
  %16 = sext i8 %15 to i32
  %17 = add nsw i32 %16, -97
  %18 = icmp ult i32 %17, 26
  %19 = add nsw i32 %16, -48
  %20 = icmp ult i32 %19, 10
  %21 = select i1 %18, i1 true, i1 %20
  br i1 %21, label %.preheader, label %.critedge, !llvm.loop !166

.critedge:                                        ; preds = %14
  %.not35 = icmp ne i8 %15, 45
  %22 = getelementptr inbounds i8, ptr %.033.pn, i64 2
  %23 = icmp eq ptr %22, %5
  %or.cond70 = select i1 %.not35, i1 true, i1 %23
  br i1 %or.cond70, label %.loopexit, label %.lr.ph, !llvm.loop !167

24:                                               ; preds = %.preheader
  %25 = icmp ult i64 %1, 5
  br i1 %25, label %26, label %46

26:                                               ; preds = %24
  %27 = tail call noundef zeroext i1 @_ZN5vcpkgeqENS_10StringViewES0_(ptr %0, i64 %1, ptr nonnull @.str.7, i64 3) #26
  br i1 %27, label %.loopexit, label %28

28:                                               ; preds = %26
  %29 = tail call noundef zeroext i1 @_ZN5vcpkgeqENS_10StringViewES0_(ptr %0, i64 %1, ptr nonnull @.str.8, i64 3) #26
  br i1 %29, label %.loopexit, label %30

30:                                               ; preds = %28
  %31 = tail call noundef zeroext i1 @_ZN5vcpkgeqENS_10StringViewES0_(ptr %0, i64 %1, ptr nonnull @.str.9, i64 3) #26
  br i1 %31, label %.loopexit, label %32

32:                                               ; preds = %30
  %33 = tail call noundef zeroext i1 @_ZN5vcpkgeqENS_10StringViewES0_(ptr %0, i64 %1, ptr nonnull @.str.10, i64 3) #26
  br i1 %33, label %.loopexit, label %34

34:                                               ; preds = %32
  %35 = tail call noundef zeroext i1 @_ZN5vcpkgeqENS_10StringViewES0_(ptr %0, i64 %1, ptr nonnull @.str.24, i64 4) #26
  br i1 %35, label %.loopexit, label %36

36:                                               ; preds = %34
  %37 = icmp eq i64 %1, 4
  br i1 %37, label %38, label %48

38:                                               ; preds = %36
  %39 = tail call noundef zeroext i1 @_ZN5vcpkg7Strings11starts_withENS_10StringViewES1_(ptr %0, i64 4, ptr nonnull @.str.11, i64 3)
  br i1 %39, label %42, label %40

40:                                               ; preds = %38
  %41 = tail call noundef zeroext i1 @_ZN5vcpkg7Strings11starts_withENS_10StringViewES1_(ptr %0, i64 4, ptr nonnull @.str.12, i64 3)
  br i1 %41, label %42, label %48

42:                                               ; preds = %40, %38
  %43 = getelementptr inbounds i8, ptr %0, i64 3
  %44 = load i8, ptr %43, align 1
  %45 = add i8 %44, -49
  %or.cond = icmp ult i8 %45, 9
  br i1 %or.cond, label %.loopexit, label %48

46:                                               ; preds = %24
  %47 = tail call noundef zeroext i1 @_ZN5vcpkgeqENS_10StringViewES0_(ptr %0, i64 %1, ptr nonnull @.str.26, i64 7) #26
  br i1 %47, label %.loopexit, label %48

48:                                               ; preds = %46, %36, %40, %42
  br label %.loopexit

.loopexit:                                        ; preds = %.lr.ph, %.critedge, %4, %42, %46, %26, %28, %30, %32, %34, %2, %48
  %.0 = phi i1 [ true, %48 ], [ true, %2 ], [ false, %34 ], [ false, %32 ], [ false, %30 ], [ false, %28 ], [ false, %26 ], [ false, %46 ], [ false, %42 ], [ false, %4 ], [ false, %.critedge ], [ false, %.lr.ph ]
  ret i1 %.0
}